target datalayout = "e-m:e-p270:32:32-p271:32:32-p272:64:64-i64:64-i128:128-f80:128-n8:16:32:64-S128"
target triple = "x86_64-pc-linux-gnu"

%struct.AVChannelLayout = type { i32, i32, %union.anon.1, ptr }
%union.anon.1 = type { i64 }
%struct.AVFilterContext = type { ptr, ptr, ptr, ptr, ptr, i32, ptr, ptr, i32, ptr, ptr, i32, i32, ptr, ptr, ptr, ptr, i32, ptr, i32, i32 }
%struct.StereoWidenContext = type { ptr, float, float, float, float, ptr, ptr, i32 }
%struct.AVFilterLink = type { ptr, ptr, ptr, ptr, i32, i32, i32, i32, %struct.AVRational, i32, i32, i32, %struct.AVChannelLayout, %struct.AVRational, ptr, i32, %struct.AVFilterFormatsConfig, %struct.AVFilterFormatsConfig }
%struct.AVRational = type { i32, i32 }
%struct.AVFilterFormatsConfig = type { ptr, ptr, ptr, ptr, ptr }
%struct.AVFrame = type { [8 x ptr], [8 x i32], ptr, i32, i32, i32, i32, i32, %struct.AVRational, i64, i64, %struct.AVRational, i32, ptr, i32, i32, [8 x ptr], ptr, i32, ptr, i32, i32, i32, i32, i32, i32, i32, i64, ptr, i32, ptr, ptr, i64, i64, i64, i64, ptr, %struct.AVChannelLayout, i64 }

; Function Attrs: nounwind uwtable
define internal i32 @filter_frame(ptr noundef %0, ptr noundef %1) #1 {
  %3 = alloca i32, align 4
  %4 = alloca ptr, align 8
  %5 = alloca ptr, align 8
  %6 = alloca ptr, align 8
  %7 = alloca ptr, align 8
  %8 = alloca ptr, align 8
  %9 = alloca ptr, align 8
  %10 = alloca float, align 4
  %11 = alloca float, align 4
  %12 = alloca float, align 4
  %13 = alloca ptr, align 8
  %14 = alloca ptr, align 8
  %15 = alloca i32, align 4
  %16 = alloca i32, align 4
  %17 = alloca float, align 4
  %18 = alloca float, align 4
  store ptr %0, ptr %4, align 8, !tbaa !27
  store ptr %1, ptr %5, align 8, !tbaa !29
  call void @llvm.lifetime.start.p0(i64 8, ptr %6) #5
  %19 = load ptr, ptr %4, align 8, !tbaa !27
  %20 = getelementptr inbounds nuw %struct.AVFilterLink, ptr %19, i32 0, i32 2
  %21 = load ptr, ptr %20, align 8, !tbaa !31
  store ptr %21, ptr %6, align 8, !tbaa !4
  call void @llvm.lifetime.start.p0(i64 8, ptr %7) #5
  %22 = load ptr, ptr %6, align 8, !tbaa !4
  %23 = getelementptr inbounds nuw %struct.AVFilterContext, ptr %22, i32 0, i32 7
  %24 = load ptr, ptr %23, align 8, !tbaa !39
  %25 = getelementptr inbounds ptr, ptr %24, i64 0
  %26 = load ptr, ptr %25, align 8, !tbaa !27
  store ptr %26, ptr %7, align 8, !tbaa !27
  call void @llvm.lifetime.start.p0(i64 8, ptr %8) #5
  %27 = load ptr, ptr %6, align 8, !tbaa !4
  %28 = getelementptr inbounds nuw %struct.AVFilterContext, ptr %27, i32 0, i32 9
  %29 = load ptr, ptr %28, align 8, !tbaa !9
  store ptr %29, ptr %8, align 8, !tbaa !22
  call void @llvm.lifetime.start.p0(i64 8, ptr %9) #5
  %30 = load ptr, ptr %5, align 8, !tbaa !29
  %31 = getelementptr inbounds nuw %struct.AVFrame, ptr %30, i32 0, i32 0
  %32 = getelementptr inbounds [8 x ptr], ptr %31, i64 0, i64 0
  %33 = load ptr, ptr %32, align 8, !tbaa !40
  store ptr %33, ptr %9, align 8, !tbaa !41
  call void @llvm.lifetime.start.p0(i64 4, ptr %10) #5
  %34 = load ptr, ptr %8, align 8, !tbaa !22
  %35 = getelementptr inbounds nuw %struct.StereoWidenContext, ptr %34, i32 0, i32 4
  %36 = load float, ptr %35, align 4, !tbaa !43
  store float %36, ptr %10, align 4, !tbaa !46
  call void @llvm.lifetime.start.p0(i64 4, ptr %11) #5
  %37 = load ptr, ptr %8, align 8, !tbaa !22
  %38 = getelementptr inbounds nuw %struct.StereoWidenContext, ptr %37, i32 0, i32 3
  %39 = load float, ptr %38, align 8, !tbaa !47
  store float %39, ptr %11, align 4, !tbaa !46
  call void @llvm.lifetime.start.p0(i64 4, ptr %12) #5
  %40 = load ptr, ptr %8, align 8, !tbaa !22
  %41 = getelementptr inbounds nuw %struct.StereoWidenContext, ptr %40, i32 0, i32 2
  %42 = load float, ptr %41, align 4, !tbaa !48
  store float %42, ptr %12, align 4, !tbaa !46
  call void @llvm.lifetime.start.p0(i64 8, ptr %13) #5
  call void @llvm.lifetime.start.p0(i64 8, ptr %14) #5
  call void @llvm.lifetime.start.p0(i64 4, ptr %15) #5
  %43 = load ptr, ptr %5, align 8, !tbaa !29
  %44 = call i32 @av_frame_is_writable(ptr noundef %43)
  %45 = icmp ne i32 %44, 0
  br i1 %45, label %46, label %48

46:                                               ; preds = %2
  %47 = load ptr, ptr %5, align 8, !tbaa !29
  store ptr %47, ptr %13, align 8, !tbaa !29
  br label %61

48:                                               ; preds = %2
  %49 = load ptr, ptr %7, align 8, !tbaa !27
  %50 = load ptr, ptr %5, align 8, !tbaa !29
  %51 = getelementptr inbounds nuw %struct.AVFrame, ptr %50, i32 0, i32 5
  %52 = load i32, ptr %51, align 8, !tbaa !49
  %53 = call ptr @ff_get_audio_buffer(ptr noundef %49, i32 noundef %52)
  store ptr %53, ptr %13, align 8, !tbaa !29
  %54 = load ptr, ptr %13, align 8, !tbaa !29
  %55 = icmp ne ptr %54, null
  br i1 %55, label %57, label %56

56:                                               ; preds = %48
  call void @av_frame_free(ptr noundef %5)
  store i32 -12, ptr %3, align 4
  store i32 1, ptr %16, align 4
  br label %175

57:                                               ; preds = %48
  %58 = load ptr, ptr %13, align 8, !tbaa !29
  %59 = load ptr, ptr %5, align 8, !tbaa !29
  %60 = call i32 @av_frame_copy_props(ptr noundef %58, ptr noundef %59)
  br label %61

61:                                               ; preds = %57, %46
  %62 = load ptr, ptr %13, align 8, !tbaa !29
  %63 = getelementptr inbounds nuw %struct.AVFrame, ptr %62, i32 0, i32 0
  %64 = getelementptr inbounds [8 x ptr], ptr %63, i64 0, i64 0
  %65 = load ptr, ptr %64, align 8, !tbaa !40
  store ptr %65, ptr %14, align 8, !tbaa !41
  store i32 0, ptr %15, align 4, !tbaa !26
  br label %66

66:                                               ; preds = %155, %61
  %67 = load i32, ptr %15, align 4, !tbaa !26
  %68 = load ptr, ptr %5, align 8, !tbaa !29
  %69 = getelementptr inbounds nuw %struct.AVFrame, ptr %68, i32 0, i32 5
  %70 = load i32, ptr %69, align 8, !tbaa !49
  %71 = icmp slt i32 %67, %70
  br i1 %71, label %72, label %166

72:                                               ; preds = %66
  call void @llvm.lifetime.start.p0(i64 4, ptr %17) #5
  %73 = load ptr, ptr %9, align 8, !tbaa !41
  %74 = getelementptr inbounds float, ptr %73, i64 0
  %75 = load float, ptr %74, align 4, !tbaa !46
  store float %75, ptr %17, align 4, !tbaa !46
  call void @llvm.lifetime.start.p0(i64 4, ptr %18) #5
  %76 = load ptr, ptr %9, align 8, !tbaa !41
  %77 = getelementptr inbounds float, ptr %76, i64 1
  %78 = load float, ptr %77, align 4, !tbaa !46
  store float %78, ptr %18, align 4, !tbaa !46
  %79 = load ptr, ptr %8, align 8, !tbaa !22
  %80 = getelementptr inbounds nuw %struct.StereoWidenContext, ptr %79, i32 0, i32 6
  %81 = load ptr, ptr %80, align 8, !tbaa !55
  %82 = load ptr, ptr %8, align 8, !tbaa !22
  %83 = getelementptr inbounds nuw %struct.StereoWidenContext, ptr %82, i32 0, i32 5
  %84 = load ptr, ptr %83, align 8, !tbaa !56
  %85 = load ptr, ptr %8, align 8, !tbaa !22
  %86 = getelementptr inbounds nuw %struct.StereoWidenContext, ptr %85, i32 0, i32 7
  %87 = load i32, ptr %86, align 8, !tbaa !57
  %88 = sext i32 %87 to i64
  %89 = getelementptr inbounds float, ptr %84, i64 %88
  %90 = icmp eq ptr %81, %89
  br i1 %90, label %91, label %97

91:                                               ; preds = %72
  %92 = load ptr, ptr %8, align 8, !tbaa !22
  %93 = getelementptr inbounds nuw %struct.StereoWidenContext, ptr %92, i32 0, i32 5
  %94 = load ptr, ptr %93, align 8, !tbaa !56
  %95 = load ptr, ptr %8, align 8, !tbaa !22
  %96 = getelementptr inbounds nuw %struct.StereoWidenContext, ptr %95, i32 0, i32 6
  store ptr %94, ptr %96, align 8, !tbaa !55
  br label %97

97:                                               ; preds = %91, %72
  %98 = load ptr, ptr %6, align 8, !tbaa !4
  %99 = getelementptr inbounds nuw %struct.AVFilterContext, ptr %98, i32 0, i32 17
  %100 = load i32, ptr %99, align 8, !tbaa !58
  %101 = icmp ne i32 %100, 0
  br i1 %101, label %102, label %109

102:                                              ; preds = %97
  %103 = load float, ptr %17, align 4, !tbaa !46
  %104 = load ptr, ptr %14, align 8, !tbaa !41
  %105 = getelementptr inbounds float, ptr %104, i64 0
  store float %103, ptr %105, align 4, !tbaa !46
  %106 = load float, ptr %18, align 4, !tbaa !46
  %107 = load ptr, ptr %14, align 8, !tbaa !41
  %108 = getelementptr inbounds float, ptr %107, i64 1
  store float %106, ptr %108, align 4, !tbaa !46
  br label %144

109:                                              ; preds = %97
  %110 = load float, ptr %10, align 4, !tbaa !46
  %111 = load float, ptr %17, align 4, !tbaa !46
  %112 = load float, ptr %11, align 4, !tbaa !46
  %113 = load float, ptr %18, align 4, !tbaa !46
  %114 = fmul nsz float %112, %113
  %115 = fneg nsz float %114
  %116 = call nsz float @llvm.fmuladd.f32(float %110, float %111, float %115)
  %117 = load float, ptr %12, align 4, !tbaa !46
  %118 = load ptr, ptr %8, align 8, !tbaa !22
  %119 = getelementptr inbounds nuw %struct.StereoWidenContext, ptr %118, i32 0, i32 6
  %120 = load ptr, ptr %119, align 8, !tbaa !55
  %121 = getelementptr inbounds float, ptr %120, i64 1
  %122 = load float, ptr %121, align 4, !tbaa !46
  %123 = fneg nsz float %117
  %124 = call nsz float @llvm.fmuladd.f32(float %123, float %122, float %116)
  %125 = load ptr, ptr %14, align 8, !tbaa !41
  %126 = getelementptr inbounds float, ptr %125, i64 0
  store float %124, ptr %126, align 4, !tbaa !46
  %127 = load float, ptr %10, align 4, !tbaa !46
  %128 = load float, ptr %18, align 4, !tbaa !46
  %129 = load float, ptr %11, align 4, !tbaa !46
  %130 = load float, ptr %17, align 4, !tbaa !46
  %131 = fmul nsz float %129, %130
  %132 = fneg nsz float %131
  %133 = call nsz float @llvm.fmuladd.f32(float %127, float %128, float %132)
  %134 = load float, ptr %12, align 4, !tbaa !46
  %135 = load ptr, ptr %8, align 8, !tbaa !22
  %136 = getelementptr inbounds nuw %struct.StereoWidenContext, ptr %135, i32 0, i32 6
  %137 = load ptr, ptr %136, align 8, !tbaa !55
  %138 = getelementptr inbounds float, ptr %137, i64 0
  %139 = load float, ptr %138, align 4, !tbaa !46
  %140 = fneg nsz float %134
  %141 = call nsz float @llvm.fmuladd.f32(float %140, float %139, float %133)
  %142 = load ptr, ptr %14, align 8, !tbaa !41
  %143 = getelementptr inbounds float, ptr %142, i64 1
  store float %141, ptr %143, align 4, !tbaa !46
  br label %144

144:                                              ; preds = %109, %102
  %145 = load float, ptr %17, align 4, !tbaa !46
  %146 = load ptr, ptr %8, align 8, !tbaa !22
  %147 = getelementptr inbounds nuw %struct.StereoWidenContext, ptr %146, i32 0, i32 6
  %148 = load ptr, ptr %147, align 8, !tbaa !55
  %149 = getelementptr inbounds float, ptr %148, i64 0
  store float %145, ptr %149, align 4, !tbaa !46
  %150 = load float, ptr %18, align 4, !tbaa !46
  %151 = load ptr, ptr %8, align 8, !tbaa !22
  %152 = getelementptr inbounds nuw %struct.StereoWidenContext, ptr %151, i32 0, i32 6
  %153 = load ptr, ptr %152, align 8, !tbaa !55
  %154 = getelementptr inbounds float, ptr %153, i64 1
  store float %150, ptr %154, align 4, !tbaa !46
  call void @llvm.lifetime.end.p0(i64 4, ptr %18) #5
  call void @llvm.lifetime.end.p0(i64 4, ptr %17) #5
  br label %155

155:                                              ; preds = %144
  %156 = load i32, ptr %15, align 4, !tbaa !26
  %157 = add nsw i32 %156, 1
  store i32 %157, ptr %15, align 4, !tbaa !26
  %158 = load ptr, ptr %9, align 8, !tbaa !41
  %159 = getelementptr inbounds float, ptr %158, i64 2
  store ptr %159, ptr %9, align 8, !tbaa !41
  %160 = load ptr, ptr %14, align 8, !tbaa !41
  %161 = getelementptr inbounds float, ptr %160, i64 2
  store ptr %161, ptr %14, align 8, !tbaa !41
  %162 = load ptr, ptr %8, align 8, !tbaa !22
  %163 = getelementptr inbounds nuw %struct.StereoWidenContext, ptr %162, i32 0, i32 6
  %164 = load ptr, ptr %163, align 8, !tbaa !55
  %165 = getelementptr inbounds float, ptr %164, i64 2
  store ptr %165, ptr %163, align 8, !tbaa !55
  br label %66, !llvm.loop !59

166:                                              ; preds = %66
  %167 = load ptr, ptr %13, align 8, !tbaa !29
  %168 = load ptr, ptr %5, align 8, !tbaa !29
  %169 = icmp ne ptr %167, %168
  br i1 %169, label %170, label %171

170:                                              ; preds = %166
  call void @av_frame_free(ptr noundef %5)
  br label %171

171:                                              ; preds = %170, %166
  %172 = load ptr, ptr %7, align 8, !tbaa !27
  %173 = load ptr, ptr %13, align 8, !tbaa !29
  %174 = call i32 @ff_filter_frame(ptr noundef %172, ptr noundef %173)
  store i32 %174, ptr %3, align 4
  store i32 1, ptr %16, align 4
  br label %175

175:                                              ; preds = %171, %56
  call void @llvm.lifetime.end.p0(i64 4, ptr %15) #5
  call void @llvm.lifetime.end.p0(i64 8, ptr %14) #5
  call void @llvm.lifetime.end.p0(i64 8, ptr %13) #5
  call void @llvm.lifetime.end.p0(i64 4, ptr %12) #5
  call void @llvm.lifetime.end.p0(i64 4, ptr %11) #5
  call void @llvm.lifetime.end.p0(i64 4, ptr %10) #5
  call void @llvm.lifetime.end.p0(i64 8, ptr %9) #5
  call void @llvm.lifetime.end.p0(i64 8, ptr %8) #5
  call void @llvm.lifetime.end.p0(i64 8, ptr %7) #5
  call void @llvm.lifetime.end.p0(i64 8, ptr %6) #5
  %176 = load i32, ptr %3, align 4
  ret i32 %176
}