; Function Attrs: nounwind uwtable
define internal i32 @filter_frame(ptr noundef readonly captures(none) %0, ptr noundef %1) #1 {
  %3 = alloca ptr, align 8
  store ptr %1, ptr %3, align 8, !tbaa !20
  %4 = getelementptr inbounds nuw i8, ptr %0, i64 16
  %5 = load ptr, ptr %4, align 8, !tbaa !22
  %6 = getelementptr inbounds nuw i8, ptr %5, i64 56
  %7 = load ptr, ptr %6, align 8, !tbaa !31
  %8 = load ptr, ptr %7, align 8, !tbaa !32
  %9 = getelementptr inbounds nuw i8, ptr %5, i64 72
  %10 = load ptr, ptr %9, align 8, !tbaa !4
  %11 = load ptr, ptr %1, align 8, !tbaa !34
  %12 = getelementptr inbounds nuw i8, ptr %10, i64 20
  %13 = load float, ptr %12, align 4, !tbaa !35
  %14 = getelementptr inbounds nuw i8, ptr %10, i64 16
  %15 = load float, ptr %14, align 8, !tbaa !39
  %16 = getelementptr inbounds nuw i8, ptr %10, i64 12
  %17 = load float, ptr %16, align 4, !tbaa !40
  %18 = tail call i32 @av_frame_is_writable(ptr noundef nonnull %1) #5
  %.not = icmp eq i32 %18, 0
  br i1 %.not, label %19, label %26

19:                                               ; preds = %2
  %20 = getelementptr inbounds nuw i8, ptr %1, i64 112
  %21 = load i32, ptr %20, align 8, !tbaa !41
  %22 = tail call ptr @ff_get_audio_buffer(ptr noundef %8, i32 noundef %21) #5
  %.not53 = icmp eq ptr %22, null
  br i1 %.not53, label %23, label %24

23:                                               ; preds = %19
  call void @av_frame_free(ptr noundef nonnull %3) #5
  br label %77

24:                                               ; preds = %19
  %25 = tail call i32 @av_frame_copy_props(ptr noundef nonnull %22, ptr noundef nonnull %1) #5
  br label %26

26:                                               ; preds = %2, %24
  %.051 = phi ptr [ %22, %24 ], [ %1, %2 ]
  %27 = getelementptr inbounds nuw i8, ptr %1, i64 112
  %28 = load i32, ptr %27, align 8, !tbaa !41
  %29 = icmp sgt i32 %28, 0
  br i1 %29, label %.lr.ph, label %73

.lr.ph:                                           ; preds = %26
  %30 = load ptr, ptr %.051, align 8, !tbaa !34
  %31 = getelementptr inbounds nuw i8, ptr %10, i64 32
  %32 = getelementptr inbounds nuw i8, ptr %10, i64 24
  %33 = load ptr, ptr %32, align 8, !tbaa !47
  %34 = getelementptr inbounds nuw i8, ptr %10, i64 40
  %35 = load i32, ptr %34, align 8, !tbaa !48
  %36 = sext i32 %35 to i64
  %37 = getelementptr inbounds float, ptr %33, i64 %36
  %38 = getelementptr inbounds nuw i8, ptr %5, i64 128
  %39 = load i32, ptr %38, align 8, !tbaa !49
  %.not55 = icmp eq i32 %39, 0
  %40 = fneg nsz float %17
  %.promoted = load ptr, ptr %31, align 8, !tbaa !50
  br i1 %.not55, label %.lr.ph.split.us, label %.lr.ph.split

.lr.ph.split.us:                                  ; preds = %.lr.ph, %.lr.ph.split.us
  %41 = phi ptr [ %61, %.lr.ph.split.us ], [ %.promoted, %.lr.ph ]
  %.04858.us = phi ptr [ %59, %.lr.ph.split.us ], [ %11, %.lr.ph ]
  %.04957.us = phi i32 [ %58, %.lr.ph.split.us ], [ 0, %.lr.ph ]
  %.05056.us = phi ptr [ %60, %.lr.ph.split.us ], [ %30, %.lr.ph ]
  %42 = load float, ptr %.04858.us, align 4, !tbaa !51
  %43 = getelementptr inbounds nuw i8, ptr %.04858.us, i64 4
  %44 = load float, ptr %43, align 4, !tbaa !51
  %45 = icmp eq ptr %41, %37
  %spec.select = select i1 %45, ptr %33, ptr %41
  %46 = fneg nsz float %44
  %47 = fmul nsz float %15, %46
  %48 = tail call nsz float @llvm.fmuladd.f32(float %13, float %42, float %47)
  %49 = getelementptr inbounds nuw i8, ptr %spec.select, i64 4
  %50 = load float, ptr %49, align 4, !tbaa !51
  %51 = tail call nsz float @llvm.fmuladd.f32(float %40, float %50, float %48)
  store float %51, ptr %.05056.us, align 4, !tbaa !51
  %52 = fneg nsz float %42
  %53 = fmul nsz float %15, %52
  %54 = tail call nsz float @llvm.fmuladd.f32(float %13, float %44, float %53)
  %55 = load float, ptr %spec.select, align 4, !tbaa !51
  %56 = tail call nsz float @llvm.fmuladd.f32(float %40, float %55, float %54)
  %57 = getelementptr inbounds nuw i8, ptr %.05056.us, i64 4
  store float %56, ptr %57, align 4, !tbaa !51
  store float %42, ptr %spec.select, align 4, !tbaa !51
  store float %44, ptr %49, align 4, !tbaa !51
  %58 = add nuw nsw i32 %.04957.us, 1
  %59 = getelementptr inbounds nuw i8, ptr %.04858.us, i64 8
  %60 = getelementptr inbounds nuw i8, ptr %.05056.us, i64 8
  %61 = getelementptr inbounds nuw i8, ptr %spec.select, i64 8
  %exitcond64.not = icmp eq i32 %58, %28
  br i1 %exitcond64.not, label %._crit_edge, label %.lr.ph.split.us, !llvm.loop !52

.lr.ph.split:                                     ; preds = %.lr.ph, %.lr.ph.split
  %62 = phi ptr [ %72, %.lr.ph.split ], [ %.promoted, %.lr.ph ]
  %.04858 = phi ptr [ %70, %.lr.ph.split ], [ %11, %.lr.ph ]
  %.04957 = phi i32 [ %69, %.lr.ph.split ], [ 0, %.lr.ph ]
  %.05056 = phi ptr [ %71, %.lr.ph.split ], [ %30, %.lr.ph ]
  %63 = load float, ptr %.04858, align 4, !tbaa !51
  %64 = getelementptr inbounds nuw i8, ptr %.04858, i64 4
  %65 = load float, ptr %64, align 4, !tbaa !51
  %66 = icmp eq ptr %62, %37
  %spec.select61 = select i1 %66, ptr %33, ptr %62
  store float %63, ptr %.05056, align 4, !tbaa !51
  %67 = getelementptr inbounds nuw i8, ptr %.05056, i64 4
  store float %65, ptr %67, align 4, !tbaa !51
  store float %63, ptr %spec.select61, align 4, !tbaa !51
  %68 = getelementptr inbounds nuw i8, ptr %spec.select61, i64 4
  store float %65, ptr %68, align 4, !tbaa !51
  %69 = add nuw nsw i32 %.04957, 1
  %70 = getelementptr inbounds nuw i8, ptr %.04858, i64 8
  %71 = getelementptr inbounds nuw i8, ptr %.05056, i64 8
  %72 = getelementptr inbounds nuw i8, ptr %spec.select61, i64 8
  %exitcond.not = icmp eq i32 %69, %28
  br i1 %exitcond.not, label %._crit_edge, label %.lr.ph.split, !llvm.loop !52

._crit_edge:                                      ; preds = %.lr.ph.split, %.lr.ph.split.us
  %.us-phi = phi ptr [ %61, %.lr.ph.split.us ], [ %72, %.lr.ph.split ]
  store ptr %.us-phi, ptr %31, align 8, !tbaa !50
  br label %73

73:                                               ; preds = %._crit_edge, %26
  %.not54 = icmp eq ptr %.051, %1
  br i1 %.not54, label %75, label %74

74:                                               ; preds = %73
  call void @av_frame_free(ptr noundef nonnull %3) #5
  br label %75

75:                                               ; preds = %74, %73
  %76 = call i32 @ff_filter_frame(ptr noundef %8, ptr noundef nonnull %.051) #5
  br label %77

77:                                               ; preds = %75, %23
  %.0 = phi i32 [ %76, %75 ], [ -12, %23 ]
  ret i32 %.0
}